target datalayout = "e-m:e-p270:32:32-p271:32:32-p272:64:64-i64:64-i128:128-f80:128-n8:16:32:64-S128"
target triple = "x86_64-pc-linux-gnu"

%"class.OpenImageIO::v3_1_0::DeepData" = type <{ ptr, i64, i32, [4 x i8] }>
%"class.std::vector" = type { %"struct.std::_Vector_base" }
%"struct.std::_Vector_base" = type { %"struct.std::_Vector_base<OpenImageIO::v3_1_0::TypeDesc, std::allocator<OpenImageIO::v3_1_0::TypeDesc>>::_Vector_impl" }
%"struct.std::_Vector_base<OpenImageIO::v3_1_0::TypeDesc, std::allocator<OpenImageIO::v3_1_0::TypeDesc>>::_Vector_impl" = type { %"struct.std::_Vector_base<OpenImageIO::v3_1_0::TypeDesc, std::allocator<OpenImageIO::v3_1_0::TypeDesc>>::_Vector_impl_data" }
%"struct.std::_Vector_base<OpenImageIO::v3_1_0::TypeDesc, std::allocator<OpenImageIO::v3_1_0::TypeDesc>>::_Vector_impl_data" = type { ptr, ptr, ptr }
%"class.std::vector.0" = type { %"struct.std::_Vector_base.1" }
%"struct.std::_Vector_base.1" = type { %"struct.std::_Vector_base<std::__cxx11::basic_string<char>, std::allocator<std::__cxx11::basic_string<char>>>::_Vector_impl" }
%"struct.std::_Vector_base<std::__cxx11::basic_string<char>, std::allocator<std::__cxx11::basic_string<char>>>::_Vector_impl" = type { %"struct.std::_Vector_base<std::__cxx11::basic_string<char>, std::allocator<std::__cxx11::basic_string<char>>>::_Vector_impl_data" }
%"struct.std::_Vector_base<std::__cxx11::basic_string<char>, std::allocator<std::__cxx11::basic_string<char>>>::_Vector_impl_data" = type { ptr, ptr, ptr }
%"class.OpenImageIO::v3_1_0::DeepData::Impl" = type <{ %"class.std::vector", %"class.std::vector.10", %"class.std::vector.10", %"class.std::vector.15", %"class.std::vector.15", %"class.std::vector.15", %"class.std::vector.20", %"class.std::vector.0", %"class.std::vector.25", i64, i32, i32, i32, i32, i32, i32, i8, %"class.OpenImageIO::v3_1_0::spin_mutex", [6 x i8] }>
%"class.std::vector.10" = type { %"struct.std::_Vector_base.11" }
%"struct.std::_Vector_base.11" = type { %"struct.std::_Vector_base<unsigned long, std::allocator<unsigned long>>::_Vector_impl" }
%"struct.std::_Vector_base<unsigned long, std::allocator<unsigned long>>::_Vector_impl" = type { %"struct.std::_Vector_base<unsigned long, std::allocator<unsigned long>>::_Vector_impl_data" }
%"struct.std::_Vector_base<unsigned long, std::allocator<unsigned long>>::_Vector_impl_data" = type { ptr, ptr, ptr }
%"class.std::vector.15" = type { %"struct.std::_Vector_base.16" }
%"struct.std::_Vector_base.16" = type { %"struct.std::_Vector_base<unsigned int, std::allocator<unsigned int>>::_Vector_impl" }
%"struct.std::_Vector_base<unsigned int, std::allocator<unsigned int>>::_Vector_impl" = type { %"struct.std::_Vector_base<unsigned int, std::allocator<unsigned int>>::_Vector_impl_data" }
%"struct.std::_Vector_base<unsigned int, std::allocator<unsigned int>>::_Vector_impl_data" = type { ptr, ptr, ptr }
%"class.std::vector.20" = type { %"struct.std::_Vector_base.21" }
%"struct.std::_Vector_base.21" = type { %"struct.std::_Vector_base<char, std::allocator<char>>::_Vector_impl" }
%"struct.std::_Vector_base<char, std::allocator<char>>::_Vector_impl" = type { %"struct.std::_Vector_base<char, std::allocator<char>>::_Vector_impl_data" }
%"struct.std::_Vector_base<char, std::allocator<char>>::_Vector_impl_data" = type { ptr, ptr, ptr }
%"class.std::vector.25" = type { %"struct.std::_Vector_base.26" }
%"struct.std::_Vector_base.26" = type { %"struct.std::_Vector_base<int, std::allocator<int>>::_Vector_impl" }
%"struct.std::_Vector_base<int, std::allocator<int>>::_Vector_impl" = type { %"struct.std::_Vector_base<int, std::allocator<int>>::_Vector_impl_data" }
%"struct.std::_Vector_base<int, std::allocator<int>>::_Vector_impl_data" = type { ptr, ptr, ptr }
%"class.OpenImageIO::v3_1_0::spin_mutex" = type { %"struct.std::atomic_flag" }
%"struct.std::atomic_flag" = type { %"struct.std::__atomic_flag_base" }
%"struct.std::__atomic_flag_base" = type { i8 }

; Function Attrs: mustprogress nounwind uwtable
define noundef i32 @_ZNK11OpenImageIO6v3_1_08DeepData10AB_channelEv(ptr noundef nonnull align 8 dereferenceable(20) %0) #5 align 2 {
  %2 = alloca ptr, align 8
  store ptr %0, ptr %2, align 8, !tbaa !3
  %3 = load ptr, ptr %2, align 8
  %4 = getelementptr inbounds nuw %"class.OpenImageIO::v3_1_0::DeepData", ptr %3, i32 0, i32 0
  %5 = load ptr, ptr %4, align 8, !tbaa !8
  %6 = getelementptr inbounds nuw %"class.OpenImageIO::v3_1_0::DeepData::Impl", ptr %5, i32 0, i32 15
  %7 = load i32, ptr %6, align 4, !tbaa !80
  %8 = icmp sge i32 %7, 0
  br i1 %8, label %9, label %14

9:                                                ; preds = %1
  %10 = getelementptr inbounds nuw %"class.OpenImageIO::v3_1_0::DeepData", ptr %3, i32 0, i32 0
  %11 = load ptr, ptr %10, align 8, !tbaa !8
  %12 = getelementptr inbounds nuw %"class.OpenImageIO::v3_1_0::DeepData::Impl", ptr %11, i32 0, i32 15
  %13 = load i32, ptr %12, align 4, !tbaa !80
  br label %19

14:                                               ; preds = %1
  %15 = getelementptr inbounds nuw %"class.OpenImageIO::v3_1_0::DeepData", ptr %3, i32 0, i32 0
  %16 = load ptr, ptr %15, align 8, !tbaa !8
  %17 = getelementptr inbounds nuw %"class.OpenImageIO::v3_1_0::DeepData::Impl", ptr %16, i32 0, i32 12
  %18 = load i32, ptr %17, align 8, !tbaa !77
  br label %19

19:                                               ; preds = %14, %9
  %20 = phi i32 [ %13, %9 ], [ %18, %14 ]
  ret i32 %20
}