; Function Attrs: mustprogress nofree norecurse nosync nounwind willreturn memory(read, inaccessiblemem: none) uwtable
define noundef i32 @_ZNK11OpenImageIO6v3_1_08DeepData10AB_channelEv(ptr noundef nonnull readonly align 8 captures(none) dereferenceable(20) %0) local_unnamed_addr #12 align 2 {
  %2 = load ptr, ptr %0, align 8, !tbaa !35
  %3 = getelementptr inbounds nuw i8, ptr %2, i64 244
  %4 = load i32, ptr %3, align 4, !tbaa !105
  %5 = icmp sgt i32 %4, -1
  br i1 %5, label %9, label %6

6:                                                ; preds = %1
  %7 = getelementptr inbounds nuw i8, ptr %2, i64 232
  %8 = load i32, ptr %7, align 8, !tbaa !102
  br label %9

9:                                                ; preds = %1, %6
  %10 = phi i32 [ %8, %6 ], [ %4, %1 ]
  ret i32 %10
}